; Function Attrs: nofree nounwind uwtable
define void @Fraig_NodeVecSortByLevel(ptr noundef readonly captures(none) %0, i32 noundef %1) local_unnamed_addr #14 {
  %.not = icmp eq i32 %1, 0
  %3 = getelementptr inbounds nuw i8, ptr %0, i64 8
  %4 = load ptr, ptr %3, align 8, !tbaa !11
  %5 = getelementptr inbounds nuw i8, ptr %0, i64 4
  %6 = load i32, ptr %5, align 4, !tbaa !3
  %7 = sext i32 %6 to i64
  %Fraig_NodeVecCompareLevelsDecreasing.Fraig_NodeVecCompareLevelsIncreasing = select i1 %.not, ptr @Fraig_NodeVecCompareLevelsDecreasing, ptr @Fraig_NodeVecCompareLevelsIncreasing
  tail call void @qsort(ptr noundef %4, i64 noundef %7, i64 noundef 8, ptr noundef nonnull %Fraig_NodeVecCompareLevelsDecreasing.Fraig_NodeVecCompareLevelsIncreasing) #18
  ret void
}